---
triple:          'arm64-apple-darwin'
binary-path:     'src/main'
relocations:
  - { offsetInCU: 0x5052, offset: 0x5052, size: 0x8, addend: 0x0, symName: __ZNSt3__124__put_character_sequenceB8ue170006IcNS_11char_traitsIcEEEERNS_13basic_ostreamIT_T0_EES7_PKS4_m, symObjAddr: 0x31AC, symBinAddr: 0x100004078, symSize: 0x164 }
  - { offsetInCU: 0x12285, offset: 0x12285, size: 0x8, addend: 0x0, symName: __ZNSt3__14endlB8ue170006IcNS_11char_traitsIcEEEERNS_13basic_ostreamIT_T0_EES7_, symObjAddr: 0xA64, symBinAddr: 0x100001930, symSize: 0x90 }
  - { offsetInCU: 0x153C3, offset: 0x153C3, size: 0x8, addend: 0x0, symName: __ZNSt3__120__throw_length_errorB8ue170006EPKc, symObjAddr: 0x3014, symBinAddr: 0x100003EE0, symSize: 0x50 }
  - { offsetInCU: 0x15435, offset: 0x15435, size: 0x8, addend: 0x0, symName: __ZNSt3__116__pad_and_outputB8ue170006IcNS_11char_traitsIcEEEENS_19ostreambuf_iteratorIT_T0_EES6_PKS4_S8_S8_RNS_8ios_baseES4_, symObjAddr: 0x3310, symBinAddr: 0x1000041DC, symSize: 0x194 }
  - { offsetInCU: 0x16DF0, offset: 0x16DF0, size: 0x8, addend: 0x0, symName: __ZSt28__throw_bad_array_new_lengthB8ue170006v, symObjAddr: 0x3088, symBinAddr: 0x100003F54, symSize: 0x28 }
  - { offsetInCU: 0x17A2A, offset: 0x17A2A, size: 0x8, addend: 0x0, symName: _main, symObjAddr: 0x1204, symBinAddr: 0x1000020D0, symSize: 0x1D88 }
  - { offsetInCU: 0x24509, offset: 0x24509, size: 0x8, addend: 0x0, symName: __Z22generate_random_vectorib, symObjAddr: 0x0, symBinAddr: 0x100000ECC, symSize: 0x4EC }
  - { offsetInCU: 0x255E9, offset: 0x255E9, size: 0x8, addend: 0x0, symName: __ZNSt3__16vectorId16AlignedAllocatorIdLm64EEEC2Em, symObjAddr: 0x30B0, symBinAddr: 0x100003F7C, symSize: 0xD4 }
  - { offsetInCU: 0x25834, offset: 0x25834, size: 0x8, addend: 0x0, symName: __ZNSt16invalid_argumentC1B8ue170006EPKc, symObjAddr: 0x4EC, symBinAddr: 0x1000013B8, symSize: 0x24 }
  - { offsetInCU: 0x25882, offset: 0x25882, size: 0x8, addend: 0x0, symName: __ZNKSt3__16vectorIdNS_9allocatorIdEEE20__throw_length_errorB8ue170006Ev, symObjAddr: 0x3198, symBinAddr: 0x100004064, symSize: 0x14 }
  - { offsetInCU: 0x258AC, offset: 0x258AC, size: 0x8, addend: 0x0, symName: __ZNSt3__124__put_character_sequenceB8ue170006IcNS_11char_traitsIcEEEERNS_13basic_ostreamIT_T0_EES7_PKS4_m, symObjAddr: 0x31AC, symBinAddr: 0x100004078, symSize: 0x164 }
  - { offsetInCU: 0x258E3, offset: 0x258E3, size: 0x8, addend: 0x0, symName: __Z22generate_random_matrixiib, symObjAddr: 0x510, symBinAddr: 0x1000013DC, symSize: 0x74 }
  - { offsetInCU: 0x2594B, offset: 0x2594B, size: 0x8, addend: 0x0, symName: __Z16transpose_matrixRKNSt3__16vectorIdNS_9allocatorIdEEEEii, symObjAddr: 0x584, symBinAddr: 0x100001450, symSize: 0x2A0 }
  - { offsetInCU: 0x25DE1, offset: 0x25DE1, size: 0x8, addend: 0x0, symName: __Z12check_resultPKcPKdS2_md, symObjAddr: 0x824, symBinAddr: 0x1000016F0, symSize: 0x240 }
  - { offsetInCU: 0x2622A, offset: 0x2622A, size: 0x8, addend: 0x0, symName: __Z17test_mv_row_majorv, symObjAddr: 0xAF4, symBinAddr: 0x1000019C0, symSize: 0x1E8 }
  - { offsetInCU: 0x264FF, offset: 0x264FF, size: 0x8, addend: 0x0, symName: __Z17test_mv_col_majorv, symObjAddr: 0xCE8, symBinAddr: 0x100001BB4, symSize: 0x1EC }
  - { offsetInCU: 0x267D6, offset: 0x267D6, size: 0x8, addend: 0x0, symName: __Z13test_mm_naivev, symObjAddr: 0xED4, symBinAddr: 0x100001DA0, symSize: 0x11C }
  - { offsetInCU: 0x269CB, offset: 0x269CB, size: 0x8, addend: 0x0, symName: __Z20test_mm_transposed_bv, symObjAddr: 0xFF0, symBinAddr: 0x100001EBC, symSize: 0x214 }
  - { offsetInCU: 0x29410, offset: 0x29410, size: 0x8, addend: 0x0, symName: __ZNSt3__16vectorI15BenchmarkResultNS_9allocatorIS1_EEE21__push_back_slow_pathIS1_EEvOT_, symObjAddr: 0x35B8, symBinAddr: 0x100004484, symSize: 0x188 }
  - { offsetInCU: 0x29AF1, offset: 0x29AF1, size: 0x8, addend: 0x0, symName: __ZNKSt3__16vectorI15BenchmarkResultNS_9allocatorIS1_EEE20__throw_length_errorB8ue170006Ev, symObjAddr: 0x3740, symBinAddr: 0x10000460C, symSize: 0x14 }
  - { offsetInCU: 0x29B05, offset: 0x29B05, size: 0x8, addend: 0x0, symName: __ZNSt3__16vectorI15BenchmarkResultNS_9allocatorIS1_EEED1B8ue170006Ev, symObjAddr: 0x2F8C, symBinAddr: 0x100003E58, symSize: 0x74 }
  - { offsetInCU: 0x29DEE, offset: 0x29DEE, size: 0x8, addend: 0x0, symName: __ZNKSt3__112basic_stringIcNS_11char_traitsIcEENS_9allocatorIcEEE20__throw_length_errorB8ue170006Ev, symObjAddr: 0x3000, symBinAddr: 0x100003ECC, symSize: 0x14 }
  - { offsetInCU: 0x29E18, offset: 0x29E18, size: 0x8, addend: 0x0, symName: __ZNSt3__120__throw_length_errorB8ue170006EPKc, symObjAddr: 0x3014, symBinAddr: 0x100003EE0, symSize: 0x50 }
  - { offsetInCU: 0x29E23, offset: 0x29E23, size: 0x8, addend: 0x0, symName: __ZNSt12length_errorC1B8ue170006EPKc, symObjAddr: 0x3064, symBinAddr: 0x100003F30, symSize: 0x24 }
  - { offsetInCU: 0x2A034, offset: 0x2A034, size: 0x8, addend: 0x0, symName: __ZNKSt3__16vectorId16AlignedAllocatorIdLm64EEE20__throw_length_errorB8ue170006Ev, symObjAddr: 0x3184, symBinAddr: 0x100004050, symSize: 0x14 }
  - { offsetInCU: 0x2A05E, offset: 0x2A05E, size: 0x8, addend: 0x0, symName: __ZNKSt3__16vectorIdNS_9allocatorIdEEE20__throw_length_errorB8ue170006Ev, symObjAddr: 0x3198, symBinAddr: 0x100004064, symSize: 0x14 }
  - { offsetInCU: 0x2A231, offset: 0x2A231, size: 0x8, addend: 0x0, symName: '__ZNSt3__110__function6__funcIZ4mainE3$_0NS_9allocatorIS2_EEFvvEED1Ev', symObjAddr: 0x34A4, symBinAddr: 0x100004370, symSize: 0x4 }
  - { offsetInCU: 0x2A25D, offset: 0x2A25D, size: 0x8, addend: 0x0, symName: '__ZNSt3__110__function6__funcIZ4mainE3$_0NS_9allocatorIS2_EEFvvEED0Ev', symObjAddr: 0x34A8, symBinAddr: 0x100004374, symSize: 0x4 }
  - { offsetInCU: 0x2A44A, offset: 0x2A44A, size: 0x8, addend: 0x0, symName: '__ZNKSt3__110__function6__funcIZ4mainE3$_0NS_9allocatorIS2_EEFvvEE7__cloneEv', symObjAddr: 0x34AC, symBinAddr: 0x100004378, symSize: 0x48 }
  - { offsetInCU: 0x2A77A, offset: 0x2A77A, size: 0x8, addend: 0x0, symName: '__ZNKSt3__110__function6__funcIZ4mainE3$_0NS_9allocatorIS2_EEFvvEE7__cloneEPNS0_6__baseIS5_EE', symObjAddr: 0x34F4, symBinAddr: 0x1000043C0, symSize: 0x28 }
  - { offsetInCU: 0x2A7B2, offset: 0x2A7B2, size: 0x8, addend: 0x0, symName: '__ZNKSt3__110__function6__funcIZ4mainE3$_0NS_9allocatorIS2_EEFvvEE7__cloneEPNS0_6__baseIS5_EE', symObjAddr: 0x34F4, symBinAddr: 0x1000043C0, symSize: 0x28 }
  - { offsetInCU: 0x2A7D7, offset: 0x2A7D7, size: 0x8, addend: 0x0, symName: '__ZNKSt3__110__function6__funcIZ4mainE3$_0NS_9allocatorIS2_EEFvvEE7__cloneEPNS0_6__baseIS5_EE', symObjAddr: 0x34F4, symBinAddr: 0x1000043C0, symSize: 0x28 }
  - { offsetInCU: 0x2A8C0, offset: 0x2A8C0, size: 0x8, addend: 0x0, symName: '__ZNSt3__110__function6__funcIZ4mainE3$_0NS_9allocatorIS2_EEFvvEE7destroyEv', symObjAddr: 0x351C, symBinAddr: 0x1000043E8, symSize: 0x4 }
  - { offsetInCU: 0x2A913, offset: 0x2A913, size: 0x8, addend: 0x0, symName: '__ZNSt3__110__function6__funcIZ4mainE3$_0NS_9allocatorIS2_EEFvvEE18destroy_deallocateEv', symObjAddr: 0x3520, symBinAddr: 0x1000043EC, symSize: 0x4 }
  - { offsetInCU: 0x2A949, offset: 0x2A949, size: 0x8, addend: 0x0, symName: '__ZNSt3__110__function6__funcIZ4mainE3$_0NS_9allocatorIS2_EEFvvEE18destroy_deallocateEv', symObjAddr: 0x3520, symBinAddr: 0x1000043EC, symSize: 0x4 }
  - { offsetInCU: 0x2A96B, offset: 0x2A96B, size: 0x8, addend: 0x0, symName: '__ZNSt3__110__function6__funcIZ4mainE3$_0NS_9allocatorIS2_EEFvvEE18destroy_deallocateEv', symObjAddr: 0x3520, symBinAddr: 0x1000043EC, symSize: 0x4 }
  - { offsetInCU: 0x2A997, offset: 0x2A997, size: 0x8, addend: 0x0, symName: '__ZNSt3__110__function6__funcIZ4mainE3$_0NS_9allocatorIS2_EEFvvEE18destroy_deallocateEv', symObjAddr: 0x3520, symBinAddr: 0x1000043EC, symSize: 0x4 }
  - { offsetInCU: 0x2A9BE, offset: 0x2A9BE, size: 0x8, addend: 0x0, symName: '__ZNSt3__110__function6__funcIZ4mainE3$_0NS_9allocatorIS2_EEFvvEE18destroy_deallocateEv', symObjAddr: 0x3520, symBinAddr: 0x1000043EC, symSize: 0x4 }
  - { offsetInCU: 0x2AA54, offset: 0x2AA54, size: 0x8, addend: 0x0, symName: '__ZNSt3__110__function6__funcIZ4mainE3$_0NS_9allocatorIS2_EEFvvEEclEv', symObjAddr: 0x3524, symBinAddr: 0x1000043F0, symSize: 0x28 }
  - { offsetInCU: 0x2AA7F, offset: 0x2AA7F, size: 0x8, addend: 0x0, symName: '__ZNSt3__110__function6__funcIZ4mainE3$_0NS_9allocatorIS2_EEFvvEEclEv', symObjAddr: 0x3524, symBinAddr: 0x1000043F0, symSize: 0x28 }
  - { offsetInCU: 0x2AA9D, offset: 0x2AA9D, size: 0x8, addend: 0x0, symName: '__ZNSt3__110__function6__funcIZ4mainE3$_0NS_9allocatorIS2_EEFvvEEclEv', symObjAddr: 0x3524, symBinAddr: 0x1000043F0, symSize: 0x28 }
  - { offsetInCU: 0x2AABA, offset: 0x2AABA, size: 0x8, addend: 0x0, symName: '__ZNSt3__110__function6__funcIZ4mainE3$_0NS_9allocatorIS2_EEFvvEEclEv', symObjAddr: 0x3524, symBinAddr: 0x1000043F0, symSize: 0x28 }
  - { offsetInCU: 0x2AAD8, offset: 0x2AAD8, size: 0x8, addend: 0x0, symName: '__ZNSt3__110__function6__funcIZ4mainE3$_0NS_9allocatorIS2_EEFvvEEclEv', symObjAddr: 0x3524, symBinAddr: 0x1000043F0, symSize: 0x28 }
  - { offsetInCU: 0x2ABB9, offset: 0x2ABB9, size: 0x8, addend: 0x0, symName: '__ZNKSt3__110__function6__funcIZ4mainE3$_0NS_9allocatorIS2_EEFvvEE6targetERKSt9type_info', symObjAddr: 0x354C, symBinAddr: 0x100004418, symSize: 0x60 }
  - { offsetInCU: 0x2AC3F, offset: 0x2AC3F, size: 0x8, addend: 0x0, symName: '__ZNKSt3__110__function6__funcIZ4mainE3$_0NS_9allocatorIS2_EEFvvEE11target_typeEv', symObjAddr: 0x35AC, symBinAddr: 0x100004478, symSize: 0xC }
  - { offsetInCU: 0x2AEAB, offset: 0x2AEAB, size: 0x8, addend: 0x0, symName: __ZNKSt3__16vectorI15BenchmarkResultNS_9allocatorIS1_EEE20__throw_length_errorB8ue170006Ev, symObjAddr: 0x3740, symBinAddr: 0x10000460C, symSize: 0x14 }
  - { offsetInCU: 0x2AED5, offset: 0x2AED5, size: 0x8, addend: 0x0, symName: '__ZNSt3__110__function6__funcIZ4mainE3$_1NS_9allocatorIS2_EEFvvEED1Ev', symObjAddr: 0x3754, symBinAddr: 0x100004620, symSize: 0x4 }
  - { offsetInCU: 0x2AEE0, offset: 0x2AEE0, size: 0x8, addend: 0x0, symName: '__ZNSt3__110__function6__funcIZ4mainE3$_1NS_9allocatorIS2_EEFvvEED1Ev', symObjAddr: 0x3754, symBinAddr: 0x100004620, symSize: 0x4 }
  - { offsetInCU: 0x2AF0C, offset: 0x2AF0C, size: 0x8, addend: 0x0, symName: '__ZNSt3__110__function6__funcIZ4mainE3$_1NS_9allocatorIS2_EEFvvEED0Ev', symObjAddr: 0x3758, symBinAddr: 0x100004624, symSize: 0x4 }
  - { offsetInCU: 0x2B0F9, offset: 0x2B0F9, size: 0x8, addend: 0x0, symName: '__ZNKSt3__110__function6__funcIZ4mainE3$_1NS_9allocatorIS2_EEFvvEE7__cloneEv', symObjAddr: 0x375C, symBinAddr: 0x100004628, symSize: 0x48 }
  - { offsetInCU: 0x2B429, offset: 0x2B429, size: 0x8, addend: 0x0, symName: '__ZNKSt3__110__function6__funcIZ4mainE3$_1NS_9allocatorIS2_EEFvvEE7__cloneEPNS0_6__baseIS5_EE', symObjAddr: 0x37A4, symBinAddr: 0x100004670, symSize: 0x28 }
  - { offsetInCU: 0x2B461, offset: 0x2B461, size: 0x8, addend: 0x0, symName: '__ZNKSt3__110__function6__funcIZ4mainE3$_1NS_9allocatorIS2_EEFvvEE7__cloneEPNS0_6__baseIS5_EE', symObjAddr: 0x37A4, symBinAddr: 0x100004670, symSize: 0x28 }
  - { offsetInCU: 0x2B486, offset: 0x2B486, size: 0x8, addend: 0x0, symName: '__ZNKSt3__110__function6__funcIZ4mainE3$_1NS_9allocatorIS2_EEFvvEE7__cloneEPNS0_6__baseIS5_EE', symObjAddr: 0x37A4, symBinAddr: 0x100004670, symSize: 0x28 }
  - { offsetInCU: 0x2B56F, offset: 0x2B56F, size: 0x8, addend: 0x0, symName: '__ZNSt3__110__function6__funcIZ4mainE3$_1NS_9allocatorIS2_EEFvvEE7destroyEv', symObjAddr: 0x37CC, symBinAddr: 0x100004698, symSize: 0x4 }
  - { offsetInCU: 0x2B5C2, offset: 0x2B5C2, size: 0x8, addend: 0x0, symName: '__ZNSt3__110__function6__funcIZ4mainE3$_1NS_9allocatorIS2_EEFvvEE18destroy_deallocateEv', symObjAddr: 0x37D0, symBinAddr: 0x10000469C, symSize: 0x4 }
  - { offsetInCU: 0x2B5F8, offset: 0x2B5F8, size: 0x8, addend: 0x0, symName: '__ZNSt3__110__function6__funcIZ4mainE3$_1NS_9allocatorIS2_EEFvvEE18destroy_deallocateEv', symObjAddr: 0x37D0, symBinAddr: 0x10000469C, symSize: 0x4 }
  - { offsetInCU: 0x2B61A, offset: 0x2B61A, size: 0x8, addend: 0x0, symName: '__ZNSt3__110__function6__funcIZ4mainE3$_1NS_9allocatorIS2_EEFvvEE18destroy_deallocateEv', symObjAddr: 0x37D0, symBinAddr: 0x10000469C, symSize: 0x4 }
  - { offsetInCU: 0x2B646, offset: 0x2B646, size: 0x8, addend: 0x0, symName: '__ZNSt3__110__function6__funcIZ4mainE3$_1NS_9allocatorIS2_EEFvvEE18destroy_deallocateEv', symObjAddr: 0x37D0, symBinAddr: 0x10000469C, symSize: 0x4 }
  - { offsetInCU: 0x2B66D, offset: 0x2B66D, size: 0x8, addend: 0x0, symName: '__ZNSt3__110__function6__funcIZ4mainE3$_1NS_9allocatorIS2_EEFvvEE18destroy_deallocateEv', symObjAddr: 0x37D0, symBinAddr: 0x10000469C, symSize: 0x4 }
  - { offsetInCU: 0x2B6ED, offset: 0x2B6ED, size: 0x8, addend: 0x0, symName: '__ZNSt3__110__function6__funcIZ4mainE3$_1NS_9allocatorIS2_EEFvvEEclEv', symObjAddr: 0x37D4, symBinAddr: 0x1000046A0, symSize: 0x28 }
  - { offsetInCU: 0x2B718, offset: 0x2B718, size: 0x8, addend: 0x0, symName: '__ZNSt3__110__function6__funcIZ4mainE3$_1NS_9allocatorIS2_EEFvvEEclEv', symObjAddr: 0x37D4, symBinAddr: 0x1000046A0, symSize: 0x28 }
  - { offsetInCU: 0x2B736, offset: 0x2B736, size: 0x8, addend: 0x0, symName: '__ZNSt3__110__function6__funcIZ4mainE3$_1NS_9allocatorIS2_EEFvvEEclEv', symObjAddr: 0x37D4, symBinAddr: 0x1000046A0, symSize: 0x28 }
  - { offsetInCU: 0x2B753, offset: 0x2B753, size: 0x8, addend: 0x0, symName: '__ZNSt3__110__function6__funcIZ4mainE3$_1NS_9allocatorIS2_EEFvvEEclEv', symObjAddr: 0x37D4, symBinAddr: 0x1000046A0, symSize: 0x28 }
  - { offsetInCU: 0x2B771, offset: 0x2B771, size: 0x8, addend: 0x0, symName: '__ZNSt3__110__function6__funcIZ4mainE3$_1NS_9allocatorIS2_EEFvvEEclEv', symObjAddr: 0x37D4, symBinAddr: 0x1000046A0, symSize: 0x28 }
  - { offsetInCU: 0x2B7F3, offset: 0x2B7F3, size: 0x8, addend: 0x0, symName: '__ZNKSt3__110__function6__funcIZ4mainE3$_1NS_9allocatorIS2_EEFvvEE6targetERKSt9type_info', symObjAddr: 0x37FC, symBinAddr: 0x1000046C8, symSize: 0x60 }
  - { offsetInCU: 0x2B879, offset: 0x2B879, size: 0x8, addend: 0x0, symName: '__ZNKSt3__110__function6__funcIZ4mainE3$_1NS_9allocatorIS2_EEFvvEE11target_typeEv', symObjAddr: 0x385C, symBinAddr: 0x100004728, symSize: 0xC }
  - { offsetInCU: 0x2B89E, offset: 0x2B89E, size: 0x8, addend: 0x0, symName: '__ZNSt3__110__function6__funcIZ4mainE3$_2NS_9allocatorIS2_EEFvvEED1Ev', symObjAddr: 0x3868, symBinAddr: 0x100004734, symSize: 0x4 }
  - { offsetInCU: 0x2B8CA, offset: 0x2B8CA, size: 0x8, addend: 0x0, symName: '__ZNSt3__110__function6__funcIZ4mainE3$_2NS_9allocatorIS2_EEFvvEED0Ev', symObjAddr: 0x386C, symBinAddr: 0x100004738, symSize: 0x4 }
  - { offsetInCU: 0x2BAB7, offset: 0x2BAB7, size: 0x8, addend: 0x0, symName: '__ZNKSt3__110__function6__funcIZ4mainE3$_2NS_9allocatorIS2_EEFvvEE7__cloneEv', symObjAddr: 0x3870, symBinAddr: 0x10000473C, symSize: 0x50 }
  - { offsetInCU: 0x2BDE7, offset: 0x2BDE7, size: 0x8, addend: 0x0, symName: '__ZNKSt3__110__function6__funcIZ4mainE3$_2NS_9allocatorIS2_EEFvvEE7__cloneEPNS0_6__baseIS5_EE', symObjAddr: 0x38C0, symBinAddr: 0x10000478C, symSize: 0x30 }
  - { offsetInCU: 0x2BE1F, offset: 0x2BE1F, size: 0x8, addend: 0x0, symName: '__ZNKSt3__110__function6__funcIZ4mainE3$_2NS_9allocatorIS2_EEFvvEE7__cloneEPNS0_6__baseIS5_EE', symObjAddr: 0x38C0, symBinAddr: 0x10000478C, symSize: 0x30 }
  - { offsetInCU: 0x2BE44, offset: 0x2BE44, size: 0x8, addend: 0x0, symName: '__ZNKSt3__110__function6__funcIZ4mainE3$_2NS_9allocatorIS2_EEFvvEE7__cloneEPNS0_6__baseIS5_EE', symObjAddr: 0x38C0, symBinAddr: 0x10000478C, symSize: 0x30 }
  - { offsetInCU: 0x2BF2D, offset: 0x2BF2D, size: 0x8, addend: 0x0, symName: '__ZNSt3__110__function6__funcIZ4mainE3$_2NS_9allocatorIS2_EEFvvEE7destroyEv', symObjAddr: 0x38F0, symBinAddr: 0x1000047BC, symSize: 0x4 }
  - { offsetInCU: 0x2BF80, offset: 0x2BF80, size: 0x8, addend: 0x0, symName: '__ZNSt3__110__function6__funcIZ4mainE3$_2NS_9allocatorIS2_EEFvvEE18destroy_deallocateEv', symObjAddr: 0x38F4, symBinAddr: 0x1000047C0, symSize: 0x4 }
  - { offsetInCU: 0x2BFB6, offset: 0x2BFB6, size: 0x8, addend: 0x0, symName: '__ZNSt3__110__function6__funcIZ4mainE3$_2NS_9allocatorIS2_EEFvvEE18destroy_deallocateEv', symObjAddr: 0x38F4, symBinAddr: 0x1000047C0, symSize: 0x4 }
  - { offsetInCU: 0x2BFD8, offset: 0x2BFD8, size: 0x8, addend: 0x0, symName: '__ZNSt3__110__function6__funcIZ4mainE3$_2NS_9allocatorIS2_EEFvvEE18destroy_deallocateEv', symObjAddr: 0x38F4, symBinAddr: 0x1000047C0, symSize: 0x4 }
  - { offsetInCU: 0x2C003, offset: 0x2C003, size: 0x8, addend: 0x0, symName: '__ZNSt3__110__function6__funcIZ4mainE3$_2NS_9allocatorIS2_EEFvvEE18destroy_deallocateEv', symObjAddr: 0x38F4, symBinAddr: 0x1000047C0, symSize: 0x4 }
  - { offsetInCU: 0x2C029, offset: 0x2C029, size: 0x8, addend: 0x0, symName: '__ZNSt3__110__function6__funcIZ4mainE3$_2NS_9allocatorIS2_EEFvvEE18destroy_deallocateEv', symObjAddr: 0x38F4, symBinAddr: 0x1000047C0, symSize: 0x4 }
  - { offsetInCU: 0x2C0A9, offset: 0x2C0A9, size: 0x8, addend: 0x0, symName: '__ZNSt3__110__function6__funcIZ4mainE3$_2NS_9allocatorIS2_EEFvvEEclEv', symObjAddr: 0x38F8, symBinAddr: 0x1000047C4, symSize: 0x34 }
  - { offsetInCU: 0x2C0D4, offset: 0x2C0D4, size: 0x8, addend: 0x0, symName: '__ZNSt3__110__function6__funcIZ4mainE3$_2NS_9allocatorIS2_EEFvvEEclEv', symObjAddr: 0x38F8, symBinAddr: 0x1000047C4, symSize: 0x34 }
  - { offsetInCU: 0x2C0F2, offset: 0x2C0F2, size: 0x8, addend: 0x0, symName: '__ZNSt3__110__function6__funcIZ4mainE3$_2NS_9allocatorIS2_EEFvvEEclEv', symObjAddr: 0x38F8, symBinAddr: 0x1000047C4, symSize: 0x34 }
  - { offsetInCU: 0x2C10F, offset: 0x2C10F, size: 0x8, addend: 0x0, symName: '__ZNSt3__110__function6__funcIZ4mainE3$_2NS_9allocatorIS2_EEFvvEEclEv', symObjAddr: 0x38F8, symBinAddr: 0x1000047C4, symSize: 0x34 }
  - { offsetInCU: 0x2C12D, offset: 0x2C12D, size: 0x8, addend: 0x0, symName: '__ZNSt3__110__function6__funcIZ4mainE3$_2NS_9allocatorIS2_EEFvvEEclEv', symObjAddr: 0x38F8, symBinAddr: 0x1000047C4, symSize: 0x34 }
  - { offsetInCU: 0x2C1E1, offset: 0x2C1E1, size: 0x8, addend: 0x0, symName: '__ZNKSt3__110__function6__funcIZ4mainE3$_2NS_9allocatorIS2_EEFvvEE6targetERKSt9type_info', symObjAddr: 0x392C, symBinAddr: 0x1000047F8, symSize: 0x60 }
  - { offsetInCU: 0x2C267, offset: 0x2C267, size: 0x8, addend: 0x0, symName: '__ZNKSt3__110__function6__funcIZ4mainE3$_2NS_9allocatorIS2_EEFvvEE11target_typeEv', symObjAddr: 0x398C, symBinAddr: 0x100004858, symSize: 0xC }
  - { offsetInCU: 0x2C28C, offset: 0x2C28C, size: 0x8, addend: 0x0, symName: '__ZNSt3__110__function6__funcIZ4mainE3$_3NS_9allocatorIS2_EEFvvEED1Ev', symObjAddr: 0x3998, symBinAddr: 0x100004864, symSize: 0x4 }
  - { offsetInCU: 0x2C2B8, offset: 0x2C2B8, size: 0x8, addend: 0x0, symName: '__ZNSt3__110__function6__funcIZ4mainE3$_3NS_9allocatorIS2_EEFvvEED0Ev', symObjAddr: 0x399C, symBinAddr: 0x100004868, symSize: 0x4 }
  - { offsetInCU: 0x2C4A5, offset: 0x2C4A5, size: 0x8, addend: 0x0, symName: '__ZNKSt3__110__function6__funcIZ4mainE3$_3NS_9allocatorIS2_EEFvvEE7__cloneEv', symObjAddr: 0x39A0, symBinAddr: 0x10000486C, symSize: 0x50 }
  - { offsetInCU: 0x2C7D5, offset: 0x2C7D5, size: 0x8, addend: 0x0, symName: '__ZNKSt3__110__function6__funcIZ4mainE3$_3NS_9allocatorIS2_EEFvvEE7__cloneEPNS0_6__baseIS5_EE', symObjAddr: 0x39F0, symBinAddr: 0x1000048BC, symSize: 0x30 }
  - { offsetInCU: 0x2C80D, offset: 0x2C80D, size: 0x8, addend: 0x0, symName: '__ZNKSt3__110__function6__funcIZ4mainE3$_3NS_9allocatorIS2_EEFvvEE7__cloneEPNS0_6__baseIS5_EE', symObjAddr: 0x39F0, symBinAddr: 0x1000048BC, symSize: 0x30 }
  - { offsetInCU: 0x2C832, offset: 0x2C832, size: 0x8, addend: 0x0, symName: '__ZNKSt3__110__function6__funcIZ4mainE3$_3NS_9allocatorIS2_EEFvvEE7__cloneEPNS0_6__baseIS5_EE', symObjAddr: 0x39F0, symBinAddr: 0x1000048BC, symSize: 0x30 }
  - { offsetInCU: 0x2C91B, offset: 0x2C91B, size: 0x8, addend: 0x0, symName: '__ZNSt3__110__function6__funcIZ4mainE3$_3NS_9allocatorIS2_EEFvvEE7destroyEv', symObjAddr: 0x3A20, symBinAddr: 0x1000048EC, symSize: 0x4 }
  - { offsetInCU: 0x2C96E, offset: 0x2C96E, size: 0x8, addend: 0x0, symName: '__ZNSt3__110__function6__funcIZ4mainE3$_3NS_9allocatorIS2_EEFvvEE18destroy_deallocateEv', symObjAddr: 0x3A24, symBinAddr: 0x1000048F0, symSize: 0x4 }
  - { offsetInCU: 0x2C9A4, offset: 0x2C9A4, size: 0x8, addend: 0x0, symName: '__ZNSt3__110__function6__funcIZ4mainE3$_3NS_9allocatorIS2_EEFvvEE18destroy_deallocateEv', symObjAddr: 0x3A24, symBinAddr: 0x1000048F0, symSize: 0x4 }
  - { offsetInCU: 0x2C9C6, offset: 0x2C9C6, size: 0x8, addend: 0x0, symName: '__ZNSt3__110__function6__funcIZ4mainE3$_3NS_9allocatorIS2_EEFvvEE18destroy_deallocateEv', symObjAddr: 0x3A24, symBinAddr: 0x1000048F0, symSize: 0x4 }
  - { offsetInCU: 0x2C9F1, offset: 0x2C9F1, size: 0x8, addend: 0x0, symName: '__ZNSt3__110__function6__funcIZ4mainE3$_3NS_9allocatorIS2_EEFvvEE18destroy_deallocateEv', symObjAddr: 0x3A24, symBinAddr: 0x1000048F0, symSize: 0x4 }
  - { offsetInCU: 0x2CA17, offset: 0x2CA17, size: 0x8, addend: 0x0, symName: '__ZNSt3__110__function6__funcIZ4mainE3$_3NS_9allocatorIS2_EEFvvEE18destroy_deallocateEv', symObjAddr: 0x3A24, symBinAddr: 0x1000048F0, symSize: 0x4 }
  - { offsetInCU: 0x2CA97, offset: 0x2CA97, size: 0x8, addend: 0x0, symName: '__ZNSt3__110__function6__funcIZ4mainE3$_3NS_9allocatorIS2_EEFvvEEclEv', symObjAddr: 0x3A28, symBinAddr: 0x1000048F4, symSize: 0x34 }
  - { offsetInCU: 0x2CAC2, offset: 0x2CAC2, size: 0x8, addend: 0x0, symName: '__ZNSt3__110__function6__funcIZ4mainE3$_3NS_9allocatorIS2_EEFvvEEclEv', symObjAddr: 0x3A28, symBinAddr: 0x1000048F4, symSize: 0x34 }
  - { offsetInCU: 0x2CAE0, offset: 0x2CAE0, size: 0x8, addend: 0x0, symName: '__ZNSt3__110__function6__funcIZ4mainE3$_3NS_9allocatorIS2_EEFvvEEclEv', symObjAddr: 0x3A28, symBinAddr: 0x1000048F4, symSize: 0x34 }
  - { offsetInCU: 0x2CAFD, offset: 0x2CAFD, size: 0x8, addend: 0x0, symName: '__ZNSt3__110__function6__funcIZ4mainE3$_3NS_9allocatorIS2_EEFvvEEclEv', symObjAddr: 0x3A28, symBinAddr: 0x1000048F4, symSize: 0x34 }
  - { offsetInCU: 0x2CB1B, offset: 0x2CB1B, size: 0x8, addend: 0x0, symName: '__ZNSt3__110__function6__funcIZ4mainE3$_3NS_9allocatorIS2_EEFvvEEclEv', symObjAddr: 0x3A28, symBinAddr: 0x1000048F4, symSize: 0x34 }
  - { offsetInCU: 0x2CBA0, offset: 0x2CBA0, size: 0x8, addend: 0x0, symName: '__ZNKSt3__110__function6__funcIZ4mainE3$_3NS_9allocatorIS2_EEFvvEE6targetERKSt9type_info', symObjAddr: 0x3A5C, symBinAddr: 0x100004928, symSize: 0x60 }
  - { offsetInCU: 0x2CC26, offset: 0x2CC26, size: 0x8, addend: 0x0, symName: '__ZNKSt3__110__function6__funcIZ4mainE3$_3NS_9allocatorIS2_EEFvvEE11target_typeEv', symObjAddr: 0x3ABC, symBinAddr: 0x100004988, symSize: 0xC }
  - { offsetInCU: 0x2CC4B, offset: 0x2CC4B, size: 0x8, addend: 0x0, symName: '__ZNSt3__110__function6__funcIZ4mainE3$_4NS_9allocatorIS2_EEFvvEED1Ev', symObjAddr: 0x3AC8, symBinAddr: 0x100004994, symSize: 0x4 }
  - { offsetInCU: 0x2CC77, offset: 0x2CC77, size: 0x8, addend: 0x0, symName: '__ZNSt3__110__function6__funcIZ4mainE3$_4NS_9allocatorIS2_EEFvvEED0Ev', symObjAddr: 0x3ACC, symBinAddr: 0x100004998, symSize: 0x4 }
  - { offsetInCU: 0x2CE64, offset: 0x2CE64, size: 0x8, addend: 0x0, symName: '__ZNKSt3__110__function6__funcIZ4mainE3$_4NS_9allocatorIS2_EEFvvEE7__cloneEv', symObjAddr: 0x3AD0, symBinAddr: 0x10000499C, symSize: 0x50 }
  - { offsetInCU: 0x2D194, offset: 0x2D194, size: 0x8, addend: 0x0, symName: '__ZNKSt3__110__function6__funcIZ4mainE3$_4NS_9allocatorIS2_EEFvvEE7__cloneEPNS0_6__baseIS5_EE', symObjAddr: 0x3B20, symBinAddr: 0x1000049EC, symSize: 0x30 }
  - { offsetInCU: 0x2D1CC, offset: 0x2D1CC, size: 0x8, addend: 0x0, symName: '__ZNKSt3__110__function6__funcIZ4mainE3$_4NS_9allocatorIS2_EEFvvEE7__cloneEPNS0_6__baseIS5_EE', symObjAddr: 0x3B20, symBinAddr: 0x1000049EC, symSize: 0x30 }
  - { offsetInCU: 0x2D1F1, offset: 0x2D1F1, size: 0x8, addend: 0x0, symName: '__ZNKSt3__110__function6__funcIZ4mainE3$_4NS_9allocatorIS2_EEFvvEE7__cloneEPNS0_6__baseIS5_EE', symObjAddr: 0x3B20, symBinAddr: 0x1000049EC, symSize: 0x30 }
  - { offsetInCU: 0x2D2DA, offset: 0x2D2DA, size: 0x8, addend: 0x0, symName: '__ZNSt3__110__function6__funcIZ4mainE3$_4NS_9allocatorIS2_EEFvvEE7destroyEv', symObjAddr: 0x3B50, symBinAddr: 0x100004A1C, symSize: 0x4 }
  - { offsetInCU: 0x2D32D, offset: 0x2D32D, size: 0x8, addend: 0x0, symName: '__ZNSt3__110__function6__funcIZ4mainE3$_4NS_9allocatorIS2_EEFvvEE18destroy_deallocateEv', symObjAddr: 0x3B54, symBinAddr: 0x100004A20, symSize: 0x4 }
  - { offsetInCU: 0x2D363, offset: 0x2D363, size: 0x8, addend: 0x0, symName: '__ZNSt3__110__function6__funcIZ4mainE3$_4NS_9allocatorIS2_EEFvvEE18destroy_deallocateEv', symObjAddr: 0x3B54, symBinAddr: 0x100004A20, symSize: 0x4 }
  - { offsetInCU: 0x2D385, offset: 0x2D385, size: 0x8, addend: 0x0, symName: '__ZNSt3__110__function6__funcIZ4mainE3$_4NS_9allocatorIS2_EEFvvEE18destroy_deallocateEv', symObjAddr: 0x3B54, symBinAddr: 0x100004A20, symSize: 0x4 }
  - { offsetInCU: 0x2D3B0, offset: 0x2D3B0, size: 0x8, addend: 0x0, symName: '__ZNSt3__110__function6__funcIZ4mainE3$_4NS_9allocatorIS2_EEFvvEE18destroy_deallocateEv', symObjAddr: 0x3B54, symBinAddr: 0x100004A20, symSize: 0x4 }
  - { offsetInCU: 0x2D3D6, offset: 0x2D3D6, size: 0x8, addend: 0x0, symName: '__ZNSt3__110__function6__funcIZ4mainE3$_4NS_9allocatorIS2_EEFvvEE18destroy_deallocateEv', symObjAddr: 0x3B54, symBinAddr: 0x100004A20, symSize: 0x4 }
  - { offsetInCU: 0x2D456, offset: 0x2D456, size: 0x8, addend: 0x0, symName: '__ZNSt3__110__function6__funcIZ4mainE3$_4NS_9allocatorIS2_EEFvvEEclEv', symObjAddr: 0x3B58, symBinAddr: 0x100004A24, symSize: 0x34 }
  - { offsetInCU: 0x2D481, offset: 0x2D481, size: 0x8, addend: 0x0, symName: '__ZNSt3__110__function6__funcIZ4mainE3$_4NS_9allocatorIS2_EEFvvEEclEv', symObjAddr: 0x3B58, symBinAddr: 0x100004A24, symSize: 0x34 }
  - { offsetInCU: 0x2D49F, offset: 0x2D49F, size: 0x8, addend: 0x0, symName: '__ZNSt3__110__function6__funcIZ4mainE3$_4NS_9allocatorIS2_EEFvvEEclEv', symObjAddr: 0x3B58, symBinAddr: 0x100004A24, symSize: 0x34 }
  - { offsetInCU: 0x2D4BC, offset: 0x2D4BC, size: 0x8, addend: 0x0, symName: '__ZNSt3__110__function6__funcIZ4mainE3$_4NS_9allocatorIS2_EEFvvEEclEv', symObjAddr: 0x3B58, symBinAddr: 0x100004A24, symSize: 0x34 }
  - { offsetInCU: 0x2D4DA, offset: 0x2D4DA, size: 0x8, addend: 0x0, symName: '__ZNSt3__110__function6__funcIZ4mainE3$_4NS_9allocatorIS2_EEFvvEEclEv', symObjAddr: 0x3B58, symBinAddr: 0x100004A24, symSize: 0x34 }
  - { offsetInCU: 0x2D58E, offset: 0x2D58E, size: 0x8, addend: 0x0, symName: '__ZNKSt3__110__function6__funcIZ4mainE3$_4NS_9allocatorIS2_EEFvvEE6targetERKSt9type_info', symObjAddr: 0x3B8C, symBinAddr: 0x100004A58, symSize: 0x60 }
  - { offsetInCU: 0x2D614, offset: 0x2D614, size: 0x8, addend: 0x0, symName: '__ZNKSt3__110__function6__funcIZ4mainE3$_4NS_9allocatorIS2_EEFvvEE11target_typeEv', symObjAddr: 0x3BEC, symBinAddr: 0x100004AB8, symSize: 0xC }
  - { offsetInCU: 0x2D639, offset: 0x2D639, size: 0x8, addend: 0x0, symName: '__ZNSt3__110__function6__funcIZ4mainE3$_5NS_9allocatorIS2_EEFvvEED1Ev', symObjAddr: 0x3BF8, symBinAddr: 0x100004AC4, symSize: 0x4 }
  - { offsetInCU: 0x2D665, offset: 0x2D665, size: 0x8, addend: 0x0, symName: '__ZNSt3__110__function6__funcIZ4mainE3$_5NS_9allocatorIS2_EEFvvEED0Ev', symObjAddr: 0x3BFC, symBinAddr: 0x100004AC8, symSize: 0x4 }
  - { offsetInCU: 0x2D852, offset: 0x2D852, size: 0x8, addend: 0x0, symName: '__ZNKSt3__110__function6__funcIZ4mainE3$_5NS_9allocatorIS2_EEFvvEE7__cloneEv', symObjAddr: 0x3C00, symBinAddr: 0x100004ACC, symSize: 0x50 }
  - { offsetInCU: 0x2DB82, offset: 0x2DB82, size: 0x8, addend: 0x0, symName: '__ZNKSt3__110__function6__funcIZ4mainE3$_5NS_9allocatorIS2_EEFvvEE7__cloneEPNS0_6__baseIS5_EE', symObjAddr: 0x3C50, symBinAddr: 0x100004B1C, symSize: 0x30 }
  - { offsetInCU: 0x2DBBA, offset: 0x2DBBA, size: 0x8, addend: 0x0, symName: '__ZNKSt3__110__function6__funcIZ4mainE3$_5NS_9allocatorIS2_EEFvvEE7__cloneEPNS0_6__baseIS5_EE', symObjAddr: 0x3C50, symBinAddr: 0x100004B1C, symSize: 0x30 }
  - { offsetInCU: 0x2DBDF, offset: 0x2DBDF, size: 0x8, addend: 0x0, symName: '__ZNKSt3__110__function6__funcIZ4mainE3$_5NS_9allocatorIS2_EEFvvEE7__cloneEPNS0_6__baseIS5_EE', symObjAddr: 0x3C50, symBinAddr: 0x100004B1C, symSize: 0x30 }
  - { offsetInCU: 0x2DCC8, offset: 0x2DCC8, size: 0x8, addend: 0x0, symName: '__ZNSt3__110__function6__funcIZ4mainE3$_5NS_9allocatorIS2_EEFvvEE7destroyEv', symObjAddr: 0x3C80, symBinAddr: 0x100004B4C, symSize: 0x4 }
  - { offsetInCU: 0x2DD1B, offset: 0x2DD1B, size: 0x8, addend: 0x0, symName: '__ZNSt3__110__function6__funcIZ4mainE3$_5NS_9allocatorIS2_EEFvvEE18destroy_deallocateEv', symObjAddr: 0x3C84, symBinAddr: 0x100004B50, symSize: 0x4 }
  - { offsetInCU: 0x2DD51, offset: 0x2DD51, size: 0x8, addend: 0x0, symName: '__ZNSt3__110__function6__funcIZ4mainE3$_5NS_9allocatorIS2_EEFvvEE18destroy_deallocateEv', symObjAddr: 0x3C84, symBinAddr: 0x100004B50, symSize: 0x4 }
  - { offsetInCU: 0x2DD73, offset: 0x2DD73, size: 0x8, addend: 0x0, symName: '__ZNSt3__110__function6__funcIZ4mainE3$_5NS_9allocatorIS2_EEFvvEE18destroy_deallocateEv', symObjAddr: 0x3C84, symBinAddr: 0x100004B50, symSize: 0x4 }
  - { offsetInCU: 0x2DD9E, offset: 0x2DD9E, size: 0x8, addend: 0x0, symName: '__ZNSt3__110__function6__funcIZ4mainE3$_5NS_9allocatorIS2_EEFvvEE18destroy_deallocateEv', symObjAddr: 0x3C84, symBinAddr: 0x100004B50, symSize: 0x4 }
  - { offsetInCU: 0x2DDC4, offset: 0x2DDC4, size: 0x8, addend: 0x0, symName: '__ZNSt3__110__function6__funcIZ4mainE3$_5NS_9allocatorIS2_EEFvvEE18destroy_deallocateEv', symObjAddr: 0x3C84, symBinAddr: 0x100004B50, symSize: 0x4 }
  - { offsetInCU: 0x2DE44, offset: 0x2DE44, size: 0x8, addend: 0x0, symName: '__ZNSt3__110__function6__funcIZ4mainE3$_5NS_9allocatorIS2_EEFvvEEclEv', symObjAddr: 0x3C88, symBinAddr: 0x100004B54, symSize: 0x34 }
  - { offsetInCU: 0x2DE6F, offset: 0x2DE6F, size: 0x8, addend: 0x0, symName: '__ZNSt3__110__function6__funcIZ4mainE3$_5NS_9allocatorIS2_EEFvvEEclEv', symObjAddr: 0x3C88, symBinAddr: 0x100004B54, symSize: 0x34 }
  - { offsetInCU: 0x2DE8D, offset: 0x2DE8D, size: 0x8, addend: 0x0, symName: '__ZNSt3__110__function6__funcIZ4mainE3$_5NS_9allocatorIS2_EEFvvEEclEv', symObjAddr: 0x3C88, symBinAddr: 0x100004B54, symSize: 0x34 }
  - { offsetInCU: 0x2DEAA, offset: 0x2DEAA, size: 0x8, addend: 0x0, symName: '__ZNSt3__110__function6__funcIZ4mainE3$_5NS_9allocatorIS2_EEFvvEEclEv', symObjAddr: 0x3C88, symBinAddr: 0x100004B54, symSize: 0x34 }
  - { offsetInCU: 0x2DEC8, offset: 0x2DEC8, size: 0x8, addend: 0x0, symName: '__ZNSt3__110__function6__funcIZ4mainE3$_5NS_9allocatorIS2_EEFvvEEclEv', symObjAddr: 0x3C88, symBinAddr: 0x100004B54, symSize: 0x34 }
  - { offsetInCU: 0x2DF7C, offset: 0x2DF7C, size: 0x8, addend: 0x0, symName: '__ZNKSt3__110__function6__funcIZ4mainE3$_5NS_9allocatorIS2_EEFvvEE6targetERKSt9type_info', symObjAddr: 0x3CBC, symBinAddr: 0x100004B88, symSize: 0x60 }
  - { offsetInCU: 0x2E002, offset: 0x2E002, size: 0x8, addend: 0x0, symName: '__ZNKSt3__110__function6__funcIZ4mainE3$_5NS_9allocatorIS2_EEFvvEE11target_typeEv', symObjAddr: 0x3D1C, symBinAddr: 0x100004BE8, symSize: 0xC }
  - { offsetInCU: 0x2E027, offset: 0x2E027, size: 0x8, addend: 0x0, symName: '__ZNSt3__110__function6__funcIZ4mainE3$_6NS_9allocatorIS2_EEFvvEED1Ev', symObjAddr: 0x3D28, symBinAddr: 0x100004BF4, symSize: 0x4 }
  - { offsetInCU: 0x2E053, offset: 0x2E053, size: 0x8, addend: 0x0, symName: '__ZNSt3__110__function6__funcIZ4mainE3$_6NS_9allocatorIS2_EEFvvEED0Ev', symObjAddr: 0x3D2C, symBinAddr: 0x100004BF8, symSize: 0x4 }
  - { offsetInCU: 0x2E240, offset: 0x2E240, size: 0x8, addend: 0x0, symName: '__ZNKSt3__110__function6__funcIZ4mainE3$_6NS_9allocatorIS2_EEFvvEE7__cloneEv', symObjAddr: 0x3D30, symBinAddr: 0x100004BFC, symSize: 0x50 }
  - { offsetInCU: 0x2E570, offset: 0x2E570, size: 0x8, addend: 0x0, symName: '__ZNKSt3__110__function6__funcIZ4mainE3$_6NS_9allocatorIS2_EEFvvEE7__cloneEPNS0_6__baseIS5_EE', symObjAddr: 0x3D80, symBinAddr: 0x100004C4C, symSize: 0x30 }
  - { offsetInCU: 0x2E5A8, offset: 0x2E5A8, size: 0x8, addend: 0x0, symName: '__ZNKSt3__110__function6__funcIZ4mainE3$_6NS_9allocatorIS2_EEFvvEE7__cloneEPNS0_6__baseIS5_EE', symObjAddr: 0x3D80, symBinAddr: 0x100004C4C, symSize: 0x30 }
  - { offsetInCU: 0x2E5CD, offset: 0x2E5CD, size: 0x8, addend: 0x0, symName: '__ZNKSt3__110__function6__funcIZ4mainE3$_6NS_9allocatorIS2_EEFvvEE7__cloneEPNS0_6__baseIS5_EE', symObjAddr: 0x3D80, symBinAddr: 0x100004C4C, symSize: 0x30 }
  - { offsetInCU: 0x2E6B6, offset: 0x2E6B6, size: 0x8, addend: 0x0, symName: '__ZNSt3__110__function6__funcIZ4mainE3$_6NS_9allocatorIS2_EEFvvEE7destroyEv', symObjAddr: 0x3DB0, symBinAddr: 0x100004C7C, symSize: 0x4 }
  - { offsetInCU: 0x2E709, offset: 0x2E709, size: 0x8, addend: 0x0, symName: '__ZNSt3__110__function6__funcIZ4mainE3$_6NS_9allocatorIS2_EEFvvEE18destroy_deallocateEv', symObjAddr: 0x3DB4, symBinAddr: 0x100004C80, symSize: 0x4 }
  - { offsetInCU: 0x2E73F, offset: 0x2E73F, size: 0x8, addend: 0x0, symName: '__ZNSt3__110__function6__funcIZ4mainE3$_6NS_9allocatorIS2_EEFvvEE18destroy_deallocateEv', symObjAddr: 0x3DB4, symBinAddr: 0x100004C80, symSize: 0x4 }
  - { offsetInCU: 0x2E761, offset: 0x2E761, size: 0x8, addend: 0x0, symName: '__ZNSt3__110__function6__funcIZ4mainE3$_6NS_9allocatorIS2_EEFvvEE18destroy_deallocateEv', symObjAddr: 0x3DB4, symBinAddr: 0x100004C80, symSize: 0x4 }
  - { offsetInCU: 0x2E78C, offset: 0x2E78C, size: 0x8, addend: 0x0, symName: '__ZNSt3__110__function6__funcIZ4mainE3$_6NS_9allocatorIS2_EEFvvEE18destroy_deallocateEv', symObjAddr: 0x3DB4, symBinAddr: 0x100004C80, symSize: 0x4 }
  - { offsetInCU: 0x2E7B2, offset: 0x2E7B2, size: 0x8, addend: 0x0, symName: '__ZNSt3__110__function6__funcIZ4mainE3$_6NS_9allocatorIS2_EEFvvEE18destroy_deallocateEv', symObjAddr: 0x3DB4, symBinAddr: 0x100004C80, symSize: 0x4 }
  - { offsetInCU: 0x2E832, offset: 0x2E832, size: 0x8, addend: 0x0, symName: '__ZNSt3__110__function6__funcIZ4mainE3$_6NS_9allocatorIS2_EEFvvEEclEv', symObjAddr: 0x3DB8, symBinAddr: 0x100004C84, symSize: 0x34 }
  - { offsetInCU: 0x2E85D, offset: 0x2E85D, size: 0x8, addend: 0x0, symName: '__ZNSt3__110__function6__funcIZ4mainE3$_6NS_9allocatorIS2_EEFvvEEclEv', symObjAddr: 0x3DB8, symBinAddr: 0x100004C84, symSize: 0x34 }
  - { offsetInCU: 0x2E87B, offset: 0x2E87B, size: 0x8, addend: 0x0, symName: '__ZNSt3__110__function6__funcIZ4mainE3$_6NS_9allocatorIS2_EEFvvEEclEv', symObjAddr: 0x3DB8, symBinAddr: 0x100004C84, symSize: 0x34 }
  - { offsetInCU: 0x2E898, offset: 0x2E898, size: 0x8, addend: 0x0, symName: '__ZNSt3__110__function6__funcIZ4mainE3$_6NS_9allocatorIS2_EEFvvEEclEv', symObjAddr: 0x3DB8, symBinAddr: 0x100004C84, symSize: 0x34 }
  - { offsetInCU: 0x2E8B6, offset: 0x2E8B6, size: 0x8, addend: 0x0, symName: '__ZNSt3__110__function6__funcIZ4mainE3$_6NS_9allocatorIS2_EEFvvEEclEv', symObjAddr: 0x3DB8, symBinAddr: 0x100004C84, symSize: 0x34 }
  - { offsetInCU: 0x2E96A, offset: 0x2E96A, size: 0x8, addend: 0x0, symName: '__ZNKSt3__110__function6__funcIZ4mainE3$_6NS_9allocatorIS2_EEFvvEE6targetERKSt9type_info', symObjAddr: 0x3DEC, symBinAddr: 0x100004CB8, symSize: 0x60 }
  - { offsetInCU: 0x2E9F0, offset: 0x2E9F0, size: 0x8, addend: 0x0, symName: '__ZNKSt3__110__function6__funcIZ4mainE3$_6NS_9allocatorIS2_EEFvvEE11target_typeEv', symObjAddr: 0x3E4C, symBinAddr: 0x100004D18, symSize: 0xC }
  - { offsetInCU: 0x26, offset: 0x2EBEF, size: 0x8, addend: 0x0, symName: __Z15check_null_slowPKvPKc, symObjAddr: 0x0, symBinAddr: 0x100004D24, symSize: 0x110 }
  - { offsetInCU: 0x50F3, offset: 0x33CBC, size: 0x8, addend: 0x0, symName: __Z15check_null_slowPKvPKc, symObjAddr: 0x0, symBinAddr: 0x100004D24, symSize: 0x110 }
  - { offsetInCU: 0x5435, offset: 0x33FFE, size: 0x8, addend: 0x0, symName: __ZNSt3__112basic_stringIcNS_11char_traitsIcEENS_9allocatorIcEEEC1B8ue170006ILi0EEEPKc, symObjAddr: 0x110, symBinAddr: 0x100004E34, symSize: 0xA0 }
  - { offsetInCU: 0x57BF, offset: 0x34388, size: 0x8, addend: 0x0, symName: __Z21multiply_mv_row_majorPKdiiS0_Pd, symObjAddr: 0x1B0, symBinAddr: 0x100004ED4, symSize: 0xEC }
  - { offsetInCU: 0x59F0, offset: 0x345B9, size: 0x8, addend: 0x0, symName: __Z21multiply_mv_row_majorPKdiiS0_Pd, symObjAddr: 0x1B0, symBinAddr: 0x100004ED4, symSize: 0xEC }
  - { offsetInCU: 0x5B24, offset: 0x346ED, size: 0x8, addend: 0x0, symName: __Z10check_nullPKvPKc, symObjAddr: 0x29C, symBinAddr: 0x100004FC0, symSize: 0x110 }
  - { offsetInCU: 0x5E60, offset: 0x34A29, size: 0x8, addend: 0x0, symName: __Z21multiply_mv_col_majorPKdiiS0_Pd, symObjAddr: 0x3AC, symBinAddr: 0x1000050D0, symSize: 0x260 }
  - { offsetInCU: 0x5F7E, offset: 0x34B47, size: 0x8, addend: 0x0, symName: __Z17multiply_mm_naivePKdiiS0_iiPd, symObjAddr: 0x60C, symBinAddr: 0x100005330, symSize: 0x378 }
  - { offsetInCU: 0x6160, offset: 0x34D29, size: 0x8, addend: 0x0, symName: __Z24multiply_mm_transposed_bPKdiiS0_iiPd, symObjAddr: 0x9A8, symBinAddr: 0x1000056A8, symSize: 0x304 }
  - { offsetInCU: 0x62E1, offset: 0x34EAA, size: 0x8, addend: 0x0, symName: __Z33multiply_mm_transposed_b_noinlinePKdiiS0_iiPd, symObjAddr: 0xCAC, symBinAddr: 0x1000059AC, symSize: 0x304 }
  - { offsetInCU: 0x6462, offset: 0x3502B, size: 0x8, addend: 0x0, symName: __Z21multiply_mm_optimizedPKdiiS0_iiPd, symObjAddr: 0xFB0, symBinAddr: 0x100005CB0, symSize: 0x4F4 }
  - { offsetInCU: 0x666E, offset: 0x35237, size: 0x8, addend: 0x0, symName: __Z30multiply_mm_optimized_noinlinePKdiiS0_iiPd, symObjAddr: 0x14A4, symBinAddr: 0x1000061A4, symSize: 0x4F4 }
  - { offsetInCU: 0x26, offset: 0x354D6, size: 0x8, addend: 0x0, symName: __Z16time_function_msNSt3__18functionIFvvEEEi, symObjAddr: 0x0, symBinAddr: 0x100006698, symSize: 0x3D4 }
  - { offsetInCU: 0x2D00, offset: 0x381B0, size: 0x8, addend: 0x0, symName: __ZNSt3__125__throw_bad_function_callB8ue170006Ev, symObjAddr: 0x484, symBinAddr: 0x100006A6C, symSize: 0x34 }
  - { offsetInCU: 0x5492, offset: 0x3A942, size: 0x8, addend: 0x0, symName: __Z16time_function_msNSt3__18functionIFvvEEEi, symObjAddr: 0x0, symBinAddr: 0x100006698, symSize: 0x3D4 }
  - { offsetInCU: 0x5F96, offset: 0x3B446, size: 0x8, addend: 0x0, symName: __ZNSt3__117bad_function_callD1Ev, symObjAddr: 0x4B8, symBinAddr: 0x100006AA0, symSize: 0x4 }
  - { offsetInCU: 0x5FB8, offset: 0x3B468, size: 0x8, addend: 0x0, symName: __ZNSt3__117bad_function_callD1Ev, symObjAddr: 0x4B8, symBinAddr: 0x100006AA0, symSize: 0x4 }
  - { offsetInCU: 0x5FEC, offset: 0x3B49C, size: 0x8, addend: 0x0, symName: __ZNSt3__117bad_function_callD0Ev, symObjAddr: 0x4BC, symBinAddr: 0x100006AA4, symSize: 0x14 }
...
